target datalayout = "e-m:e-p270:32:32-p271:32:32-p272:64:64-i64:64-i128:128-f80:128-n8:16:32:64-S128"
target triple = "x86_64-pc-linux-gnu"

%"class.icu_77::UCharCharacterIterator" = type { %"class.icu_77::CharacterIterator", ptr }
%"class.icu_77::CharacterIterator" = type { %"class.icu_77::ForwardCharacterIterator", i32, i32, i32, i32 }
%"class.icu_77::ForwardCharacterIterator" = type { %"class.icu_77::UObject" }
%"class.icu_77::UObject" = type { ptr }

; Function Attrs: mustprogress nounwind uwtable
define noundef zeroext i16 @_ZNK6icu_7722UCharCharacterIterator7currentEv(ptr noundef nonnull align 8 dereferenceable(32) %0) unnamed_addr #0 align 2 {
  %2 = alloca i16, align 2
  %3 = alloca ptr, align 8
  store ptr %0, ptr %3, align 8, !tbaa !3
  %4 = load ptr, ptr %3, align 8
  %5 = getelementptr inbounds nuw %"class.icu_77::CharacterIterator", ptr %4, i32 0, i32 2
  %6 = load i32, ptr %5, align 4, !tbaa !23
  %7 = getelementptr inbounds nuw %"class.icu_77::CharacterIterator", ptr %4, i32 0, i32 3
  %8 = load i32, ptr %7, align 8, !tbaa !24
  %9 = icmp sge i32 %6, %8
  br i1 %9, label %10, label %24

10:                                               ; preds = %1
  %11 = getelementptr inbounds nuw %"class.icu_77::CharacterIterator", ptr %4, i32 0, i32 2
  %12 = load i32, ptr %11, align 4, !tbaa !23
  %13 = getelementptr inbounds nuw %"class.icu_77::CharacterIterator", ptr %4, i32 0, i32 4
  %14 = load i32, ptr %13, align 4, !tbaa !25
  %15 = icmp slt i32 %12, %14
  br i1 %15, label %16, label %24

16:                                               ; preds = %10
  %17 = getelementptr inbounds nuw %"class.icu_77::UCharCharacterIterator", ptr %4, i32 0, i32 1
  %18 = load ptr, ptr %17, align 8, !tbaa !10
  %19 = getelementptr inbounds nuw %"class.icu_77::CharacterIterator", ptr %4, i32 0, i32 2
  %20 = load i32, ptr %19, align 4, !tbaa !23
  %21 = sext i32 %20 to i64
  %22 = getelementptr inbounds i16, ptr %18, i64 %21
  %23 = load i16, ptr %22, align 2, !tbaa !28
  store i16 %23, ptr %2, align 2
  br label %25

24:                                               ; preds = %10, %1
  store i16 -1, ptr %2, align 2
  br label %25

25:                                               ; preds = %24, %16
  %26 = load i16, ptr %2, align 2
  ret i16 %26
}