; Function Attrs: mustprogress nofree norecurse nosync nounwind willreturn memory(read, inaccessiblemem: none) uwtable
define noundef zeroext i16 @_ZNK6icu_7722UCharCharacterIterator7currentEv(ptr noundef nonnull readonly align 8 captures(none) dereferenceable(32) %0) unnamed_addr #8 align 2 {
  %2 = getelementptr inbounds nuw i8, ptr %0, i64 12
  %3 = load i32, ptr %2, align 4, !tbaa !22
  %4 = getelementptr inbounds nuw i8, ptr %0, i64 16
  %5 = load i32, ptr %4, align 8, !tbaa !23
  %.not = icmp sge i32 %3, %5
  %6 = getelementptr inbounds nuw i8, ptr %0, i64 20
  %7 = load i32, ptr %6, align 4
  %8 = icmp slt i32 %3, %7
  %or.cond = select i1 %.not, i1 %8, i1 false
  br i1 %or.cond, label %9, label %15

9:                                                ; preds = %1
  %10 = getelementptr inbounds nuw i8, ptr %0, i64 24
  %11 = load ptr, ptr %10, align 8, !tbaa !6
  %12 = sext i32 %3 to i64
  %13 = getelementptr inbounds i16, ptr %11, i64 %12
  %14 = load i16, ptr %13, align 2, !tbaa !25
  br label %15

15:                                               ; preds = %1, %9
  %.0 = phi i16 [ %14, %9 ], [ -1, %1 ]
  ret i16 %.0
}